; Function Attrs: nounwind uwtable
define internal noalias ptr @xor_newkey(ptr readnone captures(none) %0) #0 {
  %2 = tail call noalias ptr @CRYPTO_zalloc(i64 noundef 88, ptr noundef nonnull @.str.2, i32 noundef 691) #16
  %3 = icmp eq ptr %2, null
  br i1 %3, label %6, label %4

4:                                                ; preds = %1
  %5 = getelementptr inbounds nuw i8, ptr %2, i64 80
  store atomic i32 1, ptr %5 seq_cst, align 4, !tbaa !33
  br label %6

6:                                                ; preds = %1, %4
  ret ptr %2
}